target datalayout = "e-m:e-p270:32:32-p271:32:32-p272:64:64-i64:64-i128:128-f80:128-n8:16:32:64-S128"
target triple = "x86_64-pc-linux-gnu"

%struct.queued_request_t = type { ptr, i64, i64 }

; Function Attrs: nounwind uwtable
define internal void @_list_delete_retry(ptr noundef %0) #0 {
  %2 = alloca ptr, align 8
  %3 = alloca ptr, align 8
  %4 = alloca i32, align 4
  store ptr %0, ptr %2, align 8
  call void @llvm.lifetime.start.p0(i64 8, ptr %3) #10
  %5 = load ptr, ptr %2, align 8
  %6 = icmp ne ptr %5, null
  br i1 %6, label %8, label %7

7:                                                ; preds = %1
  store i32 1, ptr %4, align 4
  br label %13

8:                                                ; preds = %1
  %9 = load ptr, ptr %2, align 8
  store ptr %9, ptr %3, align 8
  %10 = load ptr, ptr %3, align 8
  %11 = getelementptr inbounds nuw %struct.queued_request_t, ptr %10, i32 0, i32 0
  %12 = load ptr, ptr %11, align 8
  call void @purge_agent_args(ptr noundef %12)
  call void @slurm_xfree(ptr noundef %3)
  store i32 0, ptr %4, align 4
  br label %13

13:                                               ; preds = %8, %7
  call void @llvm.lifetime.end.p0(i64 8, ptr %3) #10
  %14 = load i32, ptr %4, align 4
  switch i32 %14, label %16 [
    i32 0, label %15
    i32 1, label %15
  ]

15:                                               ; preds = %13, %13
  ret void

16:                                               ; preds = %13
  unreachable
}