; Function Attrs: nounwind uwtable
define internal void @_list_delete_retry(ptr noundef %0) #0 {
  %2 = alloca ptr, align 8
  call void @llvm.lifetime.start.p0(i64 8, ptr nonnull %2) #14
  %.not = icmp eq ptr %0, null
  br i1 %.not, label %5, label %3

3:                                                ; preds = %1
  store ptr %0, ptr %2, align 8
  %4 = load ptr, ptr %0, align 8
  tail call void @purge_agent_args(ptr noundef %4) #14
  call void @slurm_xfree(ptr noundef nonnull %2) #14
  br label %5

5:                                                ; preds = %1, %3
  call void @llvm.lifetime.end.p0(i64 8, ptr nonnull %2) #14
  ret void
}